target datalayout = "e-m:e-p270:32:32-p271:32:32-p272:64:64-i64:64-i128:128-f80:128-n8:16:32:64-S128"
target triple = "x86_64-pc-linux-gnu"

%struct.expert_field = type { i32, i32 }
%struct._packet_info = type { ptr, ptr, i32, i32, %struct.nstime_t, %struct.nstime_t, %struct.nstime_t, i8, ptr, ptr, ptr, ptr, %struct._address, %struct._address, %struct._address, %struct._address, %struct._address, %struct._address, i32, ptr, i8, [3 x i8], %struct.anon, i32, i32, i32, i32, ptr, i8, ptr, ptr, i16, i16, i32, i32, i16, i32, i32, ptr, ptr, ptr, i8, i8, i16, i16, i16, i32, i16, i16, ptr, ptr, ptr, ptr, ptr, i32, i32 }
%struct.nstime_t = type { i64, i32 }
%struct._address = type { i32, i32, ptr, ptr }
%struct.anon = type { i8, [3 x i8] }

@.str.29 = private unnamed_addr constant [20 x i8] c"Timestamp Uncertain\00", align 1
@hf_1722_tscf_mr = internal global i32 0, align 4
@hf_1722_tscf_rsv1 = internal global i32 0, align 4
@hf_1722_tscf_tv = internal global i32 0, align 4
@hf_1722_tscf_seqnum = internal global i32 0, align 4
@hf_1722_tscf_rsv2 = internal global i32 0, align 4
@hf_1722_tscf_tu = internal global i32 0, align 4
@hf_1722_tscf_stream_id = internal global i32 0, align 4
@hf_1722_tscf_avtp_timestamp = internal global i32 0, align 4
@hf_1722_tscf_rsv3 = internal global i32 0, align 4
@hf_1722_tscf_data_length = internal global i32 0, align 4
@hf_1722_tscf_rsv4 = internal global i32 0, align 4
@ett_1722_tscf = internal global i32 0, align 4
@ett_1722_tscf_flags = internal global i32 0, align 4
@ett_1722_tscf_tu = internal global i32 0, align 4
@ei_1722_tscf_no_space_for_header = internal global %struct.expert_field zeroinitializer, align 4
@ei_1722_tscf_invalid_data_length = internal global %struct.expert_field zeroinitializer, align 4
@.str.236 = private unnamed_addr constant [5 x i8] c"TSCF\00", align 1
@proto_1722_tscf = internal global i32 0, align 4
@avb1722_acf_handle = internal global ptr null, align 8
@.str.250 = private unnamed_addr constant [6 x i8] c"Flags\00", align 1
@.str.402 = private unnamed_addr constant [37 x i8] c"AVTP Time-Synchronous Control Format\00", align 1
@.str.403 = private unnamed_addr constant [15 x i8] c": mr=%d, tv=%d\00", align 1
@.str.404 = private unnamed_addr constant [5 x i8] c": %d\00", align 1

; Function Attrs: null_pointer_is_valid sspstrong uwtable
define internal i32 @dissect_1722_tscf(ptr noundef %0, ptr noundef %1, ptr noundef %2, ptr noundef %3) #0 {
  %5 = alloca i32, align 4
  %6 = alloca ptr, align 8
  %7 = alloca ptr, align 8
  %8 = alloca ptr, align 8
  %9 = alloca ptr, align 8
  %10 = alloca ptr, align 8
  %11 = alloca ptr, align 8
  %12 = alloca ptr, align 8
  %13 = alloca ptr, align 8
  %14 = alloca ptr, align 8
  %15 = alloca i32, align 4
  %16 = alloca i32, align 4
  %17 = alloca i32, align 4
  %18 = alloca i32, align 4
  %19 = alloca i32, align 4
  %20 = alloca i32, align 4
  %21 = alloca i32, align 4
  %22 = alloca i32, align 4
  %23 = alloca i32, align 4
  %24 = alloca ptr, align 8
  store ptr %0, ptr %6, align 8
  store ptr %1, ptr %7, align 8
  store ptr %2, ptr %8, align 8
  store ptr %3, ptr %9, align 8
  call void @llvm.lifetime.start.p0(i64 8, ptr %10) #9
  call void @llvm.lifetime.start.p0(i64 8, ptr %11) #9
  call void @llvm.lifetime.start.p0(i64 8, ptr %12) #9
  call void @llvm.lifetime.start.p0(i64 8, ptr %13) #9
  call void @llvm.lifetime.start.p0(i64 8, ptr %14) #9
  call void @llvm.lifetime.start.p0(i64 4, ptr %15) #9
  store i32 1, ptr %15, align 4
  call void @llvm.lifetime.start.p0(i64 4, ptr %16) #9
  call void @llvm.lifetime.start.p0(i64 4, ptr %17) #9
  call void @llvm.lifetime.start.p0(i64 4, ptr %18) #9
  call void @llvm.lifetime.start.p0(i64 4, ptr %19) #9
  store i32 0, ptr %19, align 4
  call void @llvm.lifetime.start.p0(i64 4, ptr %20) #9
  %25 = load ptr, ptr %6, align 8
  %26 = call i32 @tvb_captured_length(ptr noundef %25)
  store i32 %26, ptr %20, align 4
  call void @llvm.lifetime.start.p0(i64 4, ptr %21) #9
  %27 = load ptr, ptr %7, align 8
  %28 = getelementptr inbounds nuw %struct._packet_info, ptr %27, i32 0, i32 1
  %29 = load ptr, ptr %28, align 8
  call void @col_set_str(ptr noundef %29, i32 noundef 35, ptr noundef @.str.236)
  %30 = load ptr, ptr %7, align 8
  %31 = getelementptr inbounds nuw %struct._packet_info, ptr %30, i32 0, i32 1
  %32 = load ptr, ptr %31, align 8
  call void @col_set_str(ptr noundef %32, i32 noundef 25, ptr noundef @.str.402)
  %33 = load ptr, ptr %8, align 8
  %34 = load i32, ptr @proto_1722_tscf, align 4
  %35 = load ptr, ptr %6, align 8
  %36 = call ptr @proto_tree_add_item(ptr noundef %33, i32 noundef %34, ptr noundef %35, i32 noundef 0, i32 noundef -1, i32 noundef 0)
  store ptr %36, ptr %11, align 8
  %37 = load ptr, ptr %11, align 8
  %38 = load i32, ptr @ett_1722_tscf, align 4
  %39 = call ptr @proto_item_add_subtree(ptr noundef %37, i32 noundef %38)
  store ptr %39, ptr %12, align 8
  %40 = load i32, ptr %20, align 4
  %41 = icmp ult i32 %40, 24
  br i1 %41, label %42, label %47

42:                                               ; preds = %4
  %43 = load ptr, ptr %7, align 8
  %44 = load ptr, ptr %11, align 8
  %45 = call ptr @expert_add_info(ptr noundef %43, ptr noundef %44, ptr noundef @ei_1722_tscf_no_space_for_header)
  %46 = load i32, ptr %20, align 4
  store i32 %46, ptr %5, align 4
  store i32 1, ptr %22, align 4
  br label %199

47:                                               ; preds = %4
  %48 = load ptr, ptr %12, align 8
  %49 = load ptr, ptr %6, align 8
  %50 = load i32, ptr %15, align 4
  %51 = load i32, ptr @ett_1722_tscf_flags, align 4
  %52 = call ptr @proto_tree_add_subtree(ptr noundef %48, ptr noundef %49, i32 noundef %50, i32 noundef 1, i32 noundef %51, ptr noundef %10, ptr noundef @.str.250)
  store ptr %52, ptr %13, align 8
  %53 = load ptr, ptr %13, align 8
  %54 = load i32, ptr @hf_1722_tscf_mr, align 4
  %55 = load ptr, ptr %6, align 8
  %56 = load i32, ptr %15, align 4
  %57 = call ptr @proto_tree_add_item_ret_uint(ptr noundef %53, i32 noundef %54, ptr noundef %55, i32 noundef %56, i32 noundef 1, i32 noundef 0, ptr noundef %16)
  %58 = load ptr, ptr %13, align 8
  %59 = load i32, ptr @hf_1722_tscf_rsv1, align 4
  %60 = load ptr, ptr %6, align 8
  %61 = load i32, ptr %15, align 4
  %62 = call ptr @proto_tree_add_item(ptr noundef %58, i32 noundef %59, ptr noundef %60, i32 noundef %61, i32 noundef 1, i32 noundef 0)
  %63 = load ptr, ptr %13, align 8
  %64 = load i32, ptr @hf_1722_tscf_tv, align 4
  %65 = load ptr, ptr %6, align 8
  %66 = load i32, ptr %15, align 4
  %67 = call ptr @proto_tree_add_item_ret_uint(ptr noundef %63, i32 noundef %64, ptr noundef %65, i32 noundef %66, i32 noundef 1, i32 noundef 0, ptr noundef %17)
  %68 = load ptr, ptr %10, align 8
  %69 = load i32, ptr %16, align 4
  %70 = load i32, ptr %17, align 4
  call void (ptr, ptr, ...) @proto_item_append_text(ptr noundef %68, ptr noundef @.str.403, i32 noundef %69, i32 noundef %70)
  %71 = load i32, ptr %15, align 4
  %72 = add i32 %71, 1
  store i32 %72, ptr %15, align 4
  %73 = load ptr, ptr %12, align 8
  %74 = load i32, ptr @hf_1722_tscf_seqnum, align 4
  %75 = load ptr, ptr %6, align 8
  %76 = load i32, ptr %15, align 4
  %77 = call ptr @proto_tree_add_item(ptr noundef %73, i32 noundef %74, ptr noundef %75, i32 noundef %76, i32 noundef 1, i32 noundef 0)
  %78 = load i32, ptr %15, align 4
  %79 = add i32 %78, 1
  store i32 %79, ptr %15, align 4
  %80 = load ptr, ptr %12, align 8
  %81 = load ptr, ptr %6, align 8
  %82 = load i32, ptr %15, align 4
  %83 = load i32, ptr @ett_1722_tscf_tu, align 4
  %84 = call ptr @proto_tree_add_subtree(ptr noundef %80, ptr noundef %81, i32 noundef %82, i32 noundef 1, i32 noundef %83, ptr noundef %10, ptr noundef @.str.29)
  store ptr %84, ptr %14, align 8
  %85 = load ptr, ptr %14, align 8
  %86 = load i32, ptr @hf_1722_tscf_rsv2, align 4
  %87 = load ptr, ptr %6, align 8
  %88 = load i32, ptr %15, align 4
  %89 = call ptr @proto_tree_add_item(ptr noundef %85, i32 noundef %86, ptr noundef %87, i32 noundef %88, i32 noundef 1, i32 noundef 0)
  %90 = load ptr, ptr %14, align 8
  %91 = load i32, ptr @hf_1722_tscf_tu, align 4
  %92 = load ptr, ptr %6, align 8
  %93 = load i32, ptr %15, align 4
  %94 = call ptr @proto_tree_add_item_ret_uint(ptr noundef %90, i32 noundef %91, ptr noundef %92, i32 noundef %93, i32 noundef 1, i32 noundef 0, ptr noundef %18)
  %95 = load ptr, ptr %10, align 8
  %96 = load i32, ptr %18, align 4
  call void (ptr, ptr, ...) @proto_item_append_text(ptr noundef %95, ptr noundef @.str.404, i32 noundef %96)
  %97 = load i32, ptr %15, align 4
  %98 = add i32 %97, 1
  store i32 %98, ptr %15, align 4
  %99 = load ptr, ptr %12, align 8
  %100 = load i32, ptr @hf_1722_tscf_stream_id, align 4
  %101 = load ptr, ptr %6, align 8
  %102 = load i32, ptr %15, align 4
  %103 = call ptr @proto_tree_add_item(ptr noundef %99, i32 noundef %100, ptr noundef %101, i32 noundef %102, i32 noundef 8, i32 noundef 0)
  %104 = load i32, ptr %15, align 4
  %105 = add i32 %104, 8
  store i32 %105, ptr %15, align 4
  %106 = load ptr, ptr %12, align 8
  %107 = load i32, ptr @hf_1722_tscf_avtp_timestamp, align 4
  %108 = load ptr, ptr %6, align 8
  %109 = load i32, ptr %15, align 4
  %110 = call ptr @proto_tree_add_item(ptr noundef %106, i32 noundef %107, ptr noundef %108, i32 noundef %109, i32 noundef 4, i32 noundef 0)
  %111 = load i32, ptr %15, align 4
  %112 = add i32 %111, 4
  store i32 %112, ptr %15, align 4
  %113 = load ptr, ptr %12, align 8
  %114 = load i32, ptr @hf_1722_tscf_rsv3, align 4
  %115 = load ptr, ptr %6, align 8
  %116 = load i32, ptr %15, align 4
  %117 = call ptr @proto_tree_add_item(ptr noundef %113, i32 noundef %114, ptr noundef %115, i32 noundef %116, i32 noundef 4, i32 noundef 0)
  %118 = load i32, ptr %15, align 4
  %119 = add i32 %118, 4
  store i32 %119, ptr %15, align 4
  %120 = load ptr, ptr %12, align 8
  %121 = load i32, ptr @hf_1722_tscf_data_length, align 4
  %122 = load ptr, ptr %6, align 8
  %123 = load i32, ptr %15, align 4
  %124 = call ptr @proto_tree_add_item_ret_uint(ptr noundef %120, i32 noundef %121, ptr noundef %122, i32 noundef %123, i32 noundef 2, i32 noundef 0, ptr noundef %19)
  store ptr %124, ptr %10, align 8
  %125 = load ptr, ptr %6, align 8
  %126 = load i32, ptr %15, align 4
  %127 = call i32 @tvb_captured_length_remaining(ptr noundef %125, i32 noundef %126)
  store i32 %127, ptr %21, align 4
  %128 = load i32, ptr %21, align 4
  %129 = icmp slt i32 %128, 0
  br i1 %129, label %134, label %130

130:                                              ; preds = %47
  %131 = load i32, ptr %19, align 4
  %132 = load i32, ptr %21, align 4
  %133 = icmp sgt i32 %131, %132
  br i1 %133, label %134, label %138

134:                                              ; preds = %130, %47
  %135 = load ptr, ptr %7, align 8
  %136 = load ptr, ptr %10, align 8
  %137 = call ptr @expert_add_info(ptr noundef %135, ptr noundef %136, ptr noundef @ei_1722_tscf_invalid_data_length)
  br label %138

138:                                              ; preds = %134, %130
  %139 = load i32, ptr %15, align 4
  %140 = add i32 %139, 2
  store i32 %140, ptr %15, align 4
  %141 = load ptr, ptr %12, align 8
  %142 = load i32, ptr @hf_1722_tscf_rsv4, align 4
  %143 = load ptr, ptr %6, align 8
  %144 = load i32, ptr %15, align 4
  %145 = call ptr @proto_tree_add_item(ptr noundef %141, i32 noundef %142, ptr noundef %143, i32 noundef %144, i32 noundef 2, i32 noundef 0)
  %146 = load i32, ptr %15, align 4
  %147 = add i32 %146, 2
  store i32 %147, ptr %15, align 4
  %148 = load i32, ptr %19, align 4
  %149 = load i32, ptr %21, align 4
  %150 = icmp sgt i32 %148, %149
  br i1 %150, label %151, label %159

151:                                              ; preds = %138
  %152 = load i32, ptr %21, align 4
  %153 = icmp sgt i32 %152, 0
  br i1 %153, label %154, label %156

154:                                              ; preds = %151
  %155 = load i32, ptr %21, align 4
  br label %157

156:                                              ; preds = %151
  br label %157

157:                                              ; preds = %156, %154
  %158 = phi i32 [ %155, %154 ], [ 0, %156 ]
  store i32 %158, ptr %19, align 4
  br label %159

159:                                              ; preds = %157, %138
  br label %160

160:                                              ; preds = %192, %159
  %161 = load i32, ptr %19, align 4
  %162 = icmp ugt i32 %161, 0
  br i1 %162, label %163, label %193

163:                                              ; preds = %160
  call void @llvm.lifetime.start.p0(i64 4, ptr %23) #9
  call void @llvm.lifetime.start.p0(i64 8, ptr %24) #9
  %164 = load ptr, ptr %6, align 8
  %165 = load i32, ptr %15, align 4
  %166 = load i32, ptr %19, align 4
  %167 = call ptr @tvb_new_subset_length(ptr noundef %164, i32 noundef %165, i32 noundef %166)
  store ptr %167, ptr %24, align 8
  %168 = load ptr, ptr @avb1722_acf_handle, align 8
  %169 = load ptr, ptr %24, align 8
  %170 = load ptr, ptr %7, align 8
  %171 = load ptr, ptr %8, align 8
  %172 = call i32 @call_dissector(ptr noundef %168, ptr noundef %169, ptr noundef %170, ptr noundef %171)
  %173 = icmp sle i32 %172, 0
  br i1 %173, label %174, label %175

174:                                              ; preds = %163
  store i32 3, ptr %22, align 4
  br label %190

175:                                              ; preds = %163
  %176 = load ptr, ptr %24, align 8
  %177 = call i32 @tvb_reported_length(ptr noundef %176)
  store i32 %177, ptr %23, align 4
  %178 = load i32, ptr %23, align 4
  %179 = load i32, ptr %15, align 4
  %180 = add i32 %179, %178
  store i32 %180, ptr %15, align 4
  %181 = load i32, ptr %23, align 4
  %182 = load i32, ptr %19, align 4
  %183 = icmp ult i32 %181, %182
  br i1 %183, label %184, label %188

184:                                              ; preds = %175
  %185 = load i32, ptr %23, align 4
  %186 = load i32, ptr %19, align 4
  %187 = sub i32 %186, %185
  store i32 %187, ptr %19, align 4
  br label %189

188:                                              ; preds = %175
  store i32 0, ptr %19, align 4
  br label %189

189:                                              ; preds = %188, %184
  store i32 0, ptr %22, align 4
  br label %190

190:                                              ; preds = %189, %174
  call void @llvm.lifetime.end.p0(i64 8, ptr %24) #9
  call void @llvm.lifetime.end.p0(i64 4, ptr %23) #9
  %191 = load i32, ptr %22, align 4
  switch i32 %191, label %201 [
    i32 0, label %192
    i32 3, label %193
  ]

192:                                              ; preds = %190
  br label %160, !llvm.loop !14

193:                                              ; preds = %190, %160
  %194 = load ptr, ptr %6, align 8
  %195 = load i32, ptr %15, align 4
  call void @set_actual_length(ptr noundef %194, i32 noundef %195)
  %196 = load ptr, ptr %11, align 8
  %197 = load i32, ptr %15, align 4
  call void @proto_item_set_len(ptr noundef %196, i32 noundef %197)
  %198 = load i32, ptr %20, align 4
  store i32 %198, ptr %5, align 4
  store i32 1, ptr %22, align 4
  br label %199

199:                                              ; preds = %193, %42
  call void @llvm.lifetime.end.p0(i64 4, ptr %21) #9
  call void @llvm.lifetime.end.p0(i64 4, ptr %20) #9
  call void @llvm.lifetime.end.p0(i64 4, ptr %19) #9
  call void @llvm.lifetime.end.p0(i64 4, ptr %18) #9
  call void @llvm.lifetime.end.p0(i64 4, ptr %17) #9
  call void @llvm.lifetime.end.p0(i64 4, ptr %16) #9
  call void @llvm.lifetime.end.p0(i64 4, ptr %15) #9
  call void @llvm.lifetime.end.p0(i64 8, ptr %14) #9
  call void @llvm.lifetime.end.p0(i64 8, ptr %13) #9
  call void @llvm.lifetime.end.p0(i64 8, ptr %12) #9
  call void @llvm.lifetime.end.p0(i64 8, ptr %11) #9
  call void @llvm.lifetime.end.p0(i64 8, ptr %10) #9
  %200 = load i32, ptr %5, align 4
  ret i32 %200

201:                                              ; preds = %190
  unreachable
}