; Function Attrs: null_pointer_is_valid sspstrong uwtable
define internal i32 @dissect_1722_tscf(ptr noundef %0, ptr noundef %1, ptr noundef %2, ptr readnone captures(none) %3) #0 {
  %5 = alloca ptr, align 8
  %6 = alloca i32, align 4
  %7 = alloca i32, align 4
  %8 = alloca i32, align 4
  %9 = alloca i32, align 4
  call void @llvm.lifetime.start.p0(i64 8, ptr nonnull %5) #7
  call void @llvm.lifetime.start.p0(i64 4, ptr nonnull %6) #7
  call void @llvm.lifetime.start.p0(i64 4, ptr nonnull %7) #7
  call void @llvm.lifetime.start.p0(i64 4, ptr nonnull %8) #7
  call void @llvm.lifetime.start.p0(i64 4, ptr nonnull %9) #7
  store i32 0, ptr %9, align 4
  %10 = tail call i32 @tvb_captured_length(ptr noundef %0)
  %11 = getelementptr inbounds nuw i8, ptr %1, i64 8
  %12 = load ptr, ptr %11, align 8
  tail call void @col_set_str(ptr noundef %12, i32 noundef 35, ptr noundef nonnull @.str.236)
  %13 = load ptr, ptr %11, align 8
  tail call void @col_set_str(ptr noundef %13, i32 noundef 25, ptr noundef nonnull @.str.402)
  %14 = load i32, ptr @proto_1722_tscf, align 4
  %15 = tail call ptr @proto_tree_add_item(ptr noundef %2, i32 noundef %14, ptr noundef %0, i32 noundef 0, i32 noundef -1, i32 noundef 0)
  %16 = load i32, ptr @ett_1722_tscf, align 4
  %17 = tail call ptr @proto_item_add_subtree(ptr noundef %15, i32 noundef %16)
  %18 = icmp ult i32 %10, 24
  br i1 %18, label %19, label %21

19:                                               ; preds = %4
  %20 = tail call ptr @expert_add_info(ptr noundef %1, ptr noundef %15, ptr noundef nonnull @ei_1722_tscf_no_space_for_header)
  br label %75

21:                                               ; preds = %4
  %22 = load i32, ptr @ett_1722_tscf_flags, align 4
  %23 = call ptr @proto_tree_add_subtree(ptr noundef %17, ptr noundef %0, i32 noundef 1, i32 noundef 1, i32 noundef %22, ptr noundef nonnull %5, ptr noundef nonnull @.str.250)
  %24 = load i32, ptr @hf_1722_tscf_mr, align 4
  %25 = call ptr @proto_tree_add_item_ret_uint(ptr noundef %23, i32 noundef %24, ptr noundef %0, i32 noundef 1, i32 noundef 1, i32 noundef 0, ptr noundef nonnull %6)
  %26 = load i32, ptr @hf_1722_tscf_rsv1, align 4
  %27 = call ptr @proto_tree_add_item(ptr noundef %23, i32 noundef %26, ptr noundef %0, i32 noundef 1, i32 noundef 1, i32 noundef 0)
  %28 = load i32, ptr @hf_1722_tscf_tv, align 4
  %29 = call ptr @proto_tree_add_item_ret_uint(ptr noundef %23, i32 noundef %28, ptr noundef %0, i32 noundef 1, i32 noundef 1, i32 noundef 0, ptr noundef nonnull %7)
  %30 = load ptr, ptr %5, align 8
  %31 = load i32, ptr %6, align 4
  %32 = load i32, ptr %7, align 4
  call void (ptr, ptr, ...) @proto_item_append_text(ptr noundef %30, ptr noundef nonnull @.str.403, i32 noundef %31, i32 noundef %32)
  %33 = load i32, ptr @hf_1722_tscf_seqnum, align 4
  %34 = call ptr @proto_tree_add_item(ptr noundef %17, i32 noundef %33, ptr noundef %0, i32 noundef 2, i32 noundef 1, i32 noundef 0)
  %35 = load i32, ptr @ett_1722_tscf_tu, align 4
  %36 = call ptr @proto_tree_add_subtree(ptr noundef %17, ptr noundef %0, i32 noundef 3, i32 noundef 1, i32 noundef %35, ptr noundef nonnull %5, ptr noundef nonnull @.str.29)
  %37 = load i32, ptr @hf_1722_tscf_rsv2, align 4
  %38 = call ptr @proto_tree_add_item(ptr noundef %36, i32 noundef %37, ptr noundef %0, i32 noundef 3, i32 noundef 1, i32 noundef 0)
  %39 = load i32, ptr @hf_1722_tscf_tu, align 4
  %40 = call ptr @proto_tree_add_item_ret_uint(ptr noundef %36, i32 noundef %39, ptr noundef %0, i32 noundef 3, i32 noundef 1, i32 noundef 0, ptr noundef nonnull %8)
  %41 = load ptr, ptr %5, align 8
  %42 = load i32, ptr %8, align 4
  call void (ptr, ptr, ...) @proto_item_append_text(ptr noundef %41, ptr noundef nonnull @.str.404, i32 noundef %42)
  %43 = load i32, ptr @hf_1722_tscf_stream_id, align 4
  %44 = call ptr @proto_tree_add_item(ptr noundef %17, i32 noundef %43, ptr noundef %0, i32 noundef 4, i32 noundef 8, i32 noundef 0)
  %45 = load i32, ptr @hf_1722_tscf_avtp_timestamp, align 4
  %46 = call ptr @proto_tree_add_item(ptr noundef %17, i32 noundef %45, ptr noundef %0, i32 noundef 12, i32 noundef 4, i32 noundef 0)
  %47 = load i32, ptr @hf_1722_tscf_rsv3, align 4
  %48 = call ptr @proto_tree_add_item(ptr noundef %17, i32 noundef %47, ptr noundef %0, i32 noundef 16, i32 noundef 4, i32 noundef 0)
  %49 = load i32, ptr @hf_1722_tscf_data_length, align 4
  %50 = call ptr @proto_tree_add_item_ret_uint(ptr noundef %17, i32 noundef %49, ptr noundef %0, i32 noundef 20, i32 noundef 2, i32 noundef 0, ptr noundef nonnull %9)
  store ptr %50, ptr %5, align 8
  %51 = call i32 @tvb_captured_length_remaining(ptr noundef %0, i32 noundef 20)
  %52 = icmp slt i32 %51, 0
  %53 = load i32, ptr %9, align 4
  %54 = icmp sgt i32 %53, %51
  %or.cond = select i1 %52, i1 true, i1 %54
  br i1 %or.cond, label %55, label %58

55:                                               ; preds = %21
  %56 = load ptr, ptr %5, align 8
  %57 = call ptr @expert_add_info(ptr noundef %1, ptr noundef %56, ptr noundef nonnull @ei_1722_tscf_invalid_data_length)
  br label %58

58:                                               ; preds = %21, %55
  %59 = load i32, ptr @hf_1722_tscf_rsv4, align 4
  %60 = call ptr @proto_tree_add_item(ptr noundef %17, i32 noundef %59, ptr noundef %0, i32 noundef 22, i32 noundef 2, i32 noundef 0)
  %61 = load i32, ptr %9, align 4
  %62 = icmp sgt i32 %61, %51
  br i1 %62, label %63, label %65

63:                                               ; preds = %58
  %64 = call i32 @llvm.smax.i32(i32 %51, i32 0)
  store i32 %64, ptr %9, align 4
  br label %65

65:                                               ; preds = %63, %58
  %.pr = phi i32 [ %64, %63 ], [ %61, %58 ]
  %.not91 = icmp eq i32 %.pr, 0
  br i1 %.not91, label %.thread, label %.lr.ph

.lr.ph:                                           ; preds = %65, %71
  %.08192 = phi i32 [ %73, %71 ], [ 24, %65 ]
  %66 = phi i32 [ %storemerge, %71 ], [ %.pr, %65 ]
  %67 = call ptr @tvb_new_subset_length(ptr noundef %0, i32 noundef %.08192, i32 noundef %66)
  %68 = load ptr, ptr @avb1722_acf_handle, align 8
  %69 = call i32 @call_dissector(ptr noundef %68, ptr noundef %67, ptr noundef %1, ptr noundef %2)
  %70 = icmp slt i32 %69, 1
  br i1 %70, label %.thread, label %71

71:                                               ; preds = %.lr.ph
  %72 = call i32 @tvb_reported_length(ptr noundef %67)
  %73 = add i32 %72, %.08192
  %74 = load i32, ptr %9, align 4
  %storemerge = call i32 @llvm.usub.sat.i32(i32 %74, i32 %72)
  store i32 %storemerge, ptr %9, align 4
  %.not.not = icmp ugt i32 %74, %72
  br i1 %.not.not, label %.lr.ph, label %.thread

.thread:                                          ; preds = %71, %.lr.ph, %65
  %.081.lcssa = phi i32 [ 24, %65 ], [ %.08192, %.lr.ph ], [ %73, %71 ]
  call void @set_actual_length(ptr noundef %0, i32 noundef %.081.lcssa)
  call void @proto_item_set_len(ptr noundef %15, i32 noundef %.081.lcssa)
  br label %75

75:                                               ; preds = %.thread, %19
  call void @llvm.lifetime.end.p0(i64 4, ptr nonnull %9) #7
  call void @llvm.lifetime.end.p0(i64 4, ptr nonnull %8) #7
  call void @llvm.lifetime.end.p0(i64 4, ptr nonnull %7) #7
  call void @llvm.lifetime.end.p0(i64 4, ptr nonnull %6) #7
  call void @llvm.lifetime.end.p0(i64 8, ptr nonnull %5) #7
  ret i32 %10
}